; Function Attrs: nounwind sspstrong uwtable
define dso_local void @qemu_input_handler_unregister(ptr noundef %s) local_unnamed_addr #0 {
entry:
  %node = getelementptr inbounds nuw i8, ptr %s, i64 32
  %0 = load ptr, ptr %node, align 8
  %cmp.not = icmp eq ptr %0, null
  %tql_prev6 = getelementptr inbounds nuw i8, ptr %s, i64 40
  %1 = load ptr, ptr %tql_prev6, align 8
  br i1 %cmp.not, label %if.else, label %if.then

if.then:                                          ; preds = %entry
  %tql_prev4 = getelementptr inbounds nuw i8, ptr %0, i64 40
  store ptr %1, ptr %tql_prev4, align 8
  %.pre = load ptr, ptr %node, align 8
  br label %if.end

if.else:                                          ; preds = %entry
  store ptr %1, ptr getelementptr inbounds nuw (i8, ptr @handlers, i64 8), align 8
  br label %if.end

if.end:                                           ; preds = %if.else, %if.then
  %2 = phi ptr [ null, %if.else ], [ %.pre, %if.then ]
  store ptr %2, ptr %1, align 8
  tail call void @llvm.memset.p0.i64(ptr noundef nonnull align 8 dereferenceable(16) %node, i8 0, i64 16, i1 false)
  tail call void @g_free(ptr noundef nonnull %s) #12
  tail call void @notifier_list_notify(ptr noundef nonnull @mouse_mode_notifiers, ptr noundef null) #12
  ret void
}